target datalayout = "e-m:e-p270:32:32-p271:32:32-p272:64:64-i64:64-i128:128-f80:128-n8:16:32:64-S128"
target triple = "x86_64-pc-linux-gnu"

%struct.strvec = type { ptr, i64, i64 }
%struct.string_list = type { ptr, i64, i64, i8, ptr }
%struct.remote = type { %struct.hashmap_entry, ptr, i32, i32, ptr, %struct.strvec, %struct.strvec, %struct.refspec, %struct.refspec, i32, i32, i32, i32, i32, ptr, ptr, ptr, ptr, %struct.string_list, i32, ptr }
%struct.hashmap_entry = type { ptr, i32 }
%struct.refspec = type { ptr, i32, i32, i32 }

; Function Attrs: nounwind uwtable
define internal i32 @get_one_remote_for_fetch(ptr noundef %0, ptr noundef %1) #0 {
  %3 = alloca ptr, align 8
  %4 = alloca ptr, align 8
  %5 = alloca ptr, align 8
  store ptr %0, ptr %3, align 8, !tbaa !15
  store ptr %1, ptr %4, align 8, !tbaa !108
  call void @llvm.lifetime.start.p0(i64 8, ptr %5) #11
  %6 = load ptr, ptr %4, align 8, !tbaa !108
  store ptr %6, ptr %5, align 8, !tbaa !120
  %7 = load ptr, ptr %3, align 8, !tbaa !15
  %8 = getelementptr inbounds nuw %struct.remote, ptr %7, i32 0, i32 10
  %9 = load i32, ptr %8, align 4, !tbaa !121
  %10 = icmp ne i32 %9, 0
  br i1 %10, label %17, label %11

11:                                               ; preds = %2
  %12 = load ptr, ptr %5, align 8, !tbaa !120
  %13 = load ptr, ptr %3, align 8, !tbaa !15
  %14 = getelementptr inbounds nuw %struct.remote, ptr %13, i32 0, i32 1
  %15 = load ptr, ptr %14, align 8, !tbaa !128
  %16 = call ptr @string_list_append(ptr noundef %12, ptr noundef %15)
  br label %17

17:                                               ; preds = %11, %2
  call void @llvm.lifetime.end.p0(i64 8, ptr %5) #11
  ret i32 0
}