; Function Attrs: nounwind uwtable
define internal noundef i32 @get_one_remote_for_fetch(ptr noundef readonly captures(none) %0, ptr noundef %1) #0 {
  %3 = getelementptr inbounds nuw i8, ptr %0, i64 140
  %4 = load i32, ptr %3, align 4, !tbaa !201
  %.not = icmp eq i32 %4, 0
  br i1 %.not, label %5, label %9

5:                                                ; preds = %2
  %6 = getelementptr inbounds nuw i8, ptr %0, i64 16
  %7 = load ptr, ptr %6, align 8, !tbaa !59
  %8 = tail call ptr @string_list_append(ptr noundef %1, ptr noundef %7) #20
  br label %9

9:                                                ; preds = %5, %2
  ret i32 0
}